target datalayout = "e-m:e-p270:32:32-p271:32:32-p272:64:64-i64:64-i128:128-f80:128-n8:16:32:64-S128"
target triple = "x86_64-pc-linux-gnu"

%"struct.duckdb_zstd::ZSTD_frameHeader" = type { i64, i64, i32, i32, i32, i32, i32, i32, i32 }

; Function Attrs: mustprogress nounwind uwtable
define internal noundef i64 @_ZN11duckdb_zstdL32ZSTD_decodingBufferSize_internalEyym(i64 noundef %0, i64 noundef %1, i64 noundef %2) #2 {
  %4 = alloca i64, align 8
  %5 = alloca i64, align 8
  %6 = alloca i64, align 8
  %7 = alloca i64, align 8
  %8 = alloca i64, align 8
  %9 = alloca i64, align 8
  %10 = alloca i64, align 8
  %11 = alloca i64, align 8
  %12 = alloca i32, align 4
  store i64 %0, ptr %5, align 8, !tbaa !66
  store i64 %1, ptr %6, align 8, !tbaa !66
  store i64 %2, ptr %7, align 8, !tbaa !34
  call void @llvm.lifetime.start.p0(i64 8, ptr %8) #12
  %13 = load i64, ptr %5, align 8, !tbaa !66
  %14 = icmp ult i64 %13, 131072
  br i1 %14, label %15, label %17

15:                                               ; preds = %3
  %16 = load i64, ptr %5, align 8, !tbaa !66
  br label %18

17:                                               ; preds = %3
  br label %18

18:                                               ; preds = %17, %15
  %19 = phi i64 [ %16, %15 ], [ 131072, %17 ]
  %20 = load i64, ptr %7, align 8, !tbaa !34
  %21 = icmp ult i64 %19, %20
  br i1 %21, label %22, label %30

22:                                               ; preds = %18
  %23 = load i64, ptr %5, align 8, !tbaa !66
  %24 = icmp ult i64 %23, 131072
  br i1 %24, label %25, label %27

25:                                               ; preds = %22
  %26 = load i64, ptr %5, align 8, !tbaa !66
  br label %28

27:                                               ; preds = %22
  br label %28

28:                                               ; preds = %27, %25
  %29 = phi i64 [ %26, %25 ], [ 131072, %27 ]
  br label %32

30:                                               ; preds = %18
  %31 = load i64, ptr %7, align 8, !tbaa !34
  br label %32

32:                                               ; preds = %30, %28
  %33 = phi i64 [ %29, %28 ], [ %31, %30 ]
  store i64 %33, ptr %8, align 8, !tbaa !34
  call void @llvm.lifetime.start.p0(i64 8, ptr %9) #12
  %34 = load i64, ptr %5, align 8, !tbaa !66
  %35 = load i64, ptr %8, align 8, !tbaa !34
  %36 = mul i64 %35, 2
  %37 = add i64 %34, %36
  %38 = add i64 %37, 64
  store i64 %38, ptr %9, align 8, !tbaa !66
  call void @llvm.lifetime.start.p0(i64 8, ptr %10) #12
  %39 = load i64, ptr %6, align 8, !tbaa !66
  %40 = load i64, ptr %9, align 8, !tbaa !66
  %41 = icmp ult i64 %39, %40
  br i1 %41, label %42, label %44

42:                                               ; preds = %32
  %43 = load i64, ptr %6, align 8, !tbaa !66
  br label %46

44:                                               ; preds = %32
  %45 = load i64, ptr %9, align 8, !tbaa !66
  br label %46

46:                                               ; preds = %44, %42
  %47 = phi i64 [ %43, %42 ], [ %45, %44 ]
  store i64 %47, ptr %10, align 8, !tbaa !66
  call void @llvm.lifetime.start.p0(i64 8, ptr %11) #12
  %48 = load i64, ptr %10, align 8, !tbaa !66
  store i64 %48, ptr %11, align 8, !tbaa !34
  br label %49

49:                                               ; preds = %46
  %50 = load i64, ptr %11, align 8, !tbaa !34
  %51 = load i64, ptr %10, align 8, !tbaa !66
  %52 = icmp ne i64 %50, %51
  br i1 %52, label %53, label %66

53:                                               ; preds = %49
  br label %54

54:                                               ; preds = %53
  br label %55

55:                                               ; preds = %54
  br label %56

56:                                               ; preds = %55
  br label %57

57:                                               ; preds = %56
  br label %58

58:                                               ; preds = %57
  br label %59

59:                                               ; preds = %58
  br label %60

60:                                               ; preds = %59
  br label %61

61:                                               ; preds = %60
  br label %62

62:                                               ; preds = %61
  br label %63

63:                                               ; preds = %62
  br label %64

64:                                               ; preds = %63
  br label %65

65:                                               ; preds = %64
  store i64 -16, ptr %4, align 8
  store i32 1, ptr %12, align 4
  br label %70

66:                                               ; preds = %49
  br label %67

67:                                               ; preds = %66
  br label %68

68:                                               ; preds = %67
  %69 = load i64, ptr %11, align 8, !tbaa !34
  store i64 %69, ptr %4, align 8
  store i32 1, ptr %12, align 4
  br label %70

70:                                               ; preds = %68, %65
  call void @llvm.lifetime.end.p0(i64 8, ptr %11) #12
  call void @llvm.lifetime.end.p0(i64 8, ptr %10) #12
  call void @llvm.lifetime.end.p0(i64 8, ptr %9) #12
  call void @llvm.lifetime.end.p0(i64 8, ptr %8) #12
  %71 = load i64, ptr %4, align 8
  ret i64 %71
}

; Function Attrs: mustprogress nounwind uwtable
define noundef i64 @_ZN11duckdb_zstd21ZSTD_estimateDCtxSizeEv() #2 {
  ret i64 95976
}

; Function Attrs: mustprogress uwtable
define noundef i64 @_ZN11duckdb_zstd27ZSTD_decodingBufferSize_minEyy(i64 noundef %0, i64 noundef %1) #0 {
  %3 = alloca i64, align 8
  %4 = alloca i64, align 8
  store i64 %0, ptr %3, align 8, !tbaa !66
  store i64 %1, ptr %4, align 8, !tbaa !66
  %5 = load i64, ptr %3, align 8, !tbaa !66
  %6 = load i64, ptr %4, align 8, !tbaa !66
  %7 = call noundef i64 @_ZN11duckdb_zstdL32ZSTD_decodingBufferSize_internalEyym(i64 noundef %5, i64 noundef %6, i64 noundef 131072)
  ret i64 %7
}

; Function Attrs: mustprogress uwtable
define noundef i64 @_ZN11duckdb_zstd24ZSTD_estimateDStreamSizeEm(i64 noundef %0) #0 {
  %2 = alloca i64, align 8
  %3 = alloca i64, align 8
  %4 = alloca i64, align 8
  %5 = alloca i64, align 8
  store i64 %0, ptr %2, align 8, !tbaa !34
  call void @llvm.lifetime.start.p0(i64 8, ptr %3) #12
  %6 = load i64, ptr %2, align 8, !tbaa !34
  %7 = icmp ult i64 %6, 131072
  br i1 %7, label %8, label %10

8:                                                ; preds = %1
  %9 = load i64, ptr %2, align 8, !tbaa !34
  br label %11

10:                                               ; preds = %1
  br label %11

11:                                               ; preds = %10, %8
  %12 = phi i64 [ %9, %8 ], [ 131072, %10 ]
  store i64 %12, ptr %3, align 8, !tbaa !34
  call void @llvm.lifetime.start.p0(i64 8, ptr %4) #12
  %13 = load i64, ptr %3, align 8, !tbaa !34
  store i64 %13, ptr %4, align 8, !tbaa !34
  call void @llvm.lifetime.start.p0(i64 8, ptr %5) #12
  %14 = load i64, ptr %2, align 8, !tbaa !34
  %15 = call noundef i64 @_ZN11duckdb_zstd27ZSTD_decodingBufferSize_minEyy(i64 noundef %14, i64 noundef -1)
  store i64 %15, ptr %5, align 8, !tbaa !34
  %16 = call noundef i64 @_ZN11duckdb_zstd21ZSTD_estimateDCtxSizeEv()
  %17 = load i64, ptr %4, align 8, !tbaa !34
  %18 = add i64 %16, %17
  %19 = load i64, ptr %5, align 8, !tbaa !34
  %20 = add i64 %18, %19
  call void @llvm.lifetime.end.p0(i64 8, ptr %5) #12
  call void @llvm.lifetime.end.p0(i64 8, ptr %4) #12
  call void @llvm.lifetime.end.p0(i64 8, ptr %3) #12
  ret i64 %20
}

; Function Attrs: mustprogress nounwind uwtable
define internal noundef i32 @_ZN11duckdb_zstdL11ERR_isErrorEm(i64 noundef %0) #2 {
  %2 = alloca i64, align 8
  store i64 %0, ptr %2, align 8, !tbaa !34
  %3 = load i64, ptr %2, align 8, !tbaa !34
  %4 = icmp ugt i64 %3, -120
  %5 = zext i1 %4 to i32
  ret i32 %5
}

; Function Attrs: mustprogress uwtable
define noundef i64 @_ZN11duckdb_zstd19ZSTD_getFrameHeaderEPNS_16ZSTD_frameHeaderEPKvm(ptr noundef %0, ptr noundef %1, i64 noundef %2) #0 {
  %4 = alloca ptr, align 8
  %5 = alloca ptr, align 8
  %6 = alloca i64, align 8
  store ptr %0, ptr %4, align 8, !tbaa !33
  store ptr %1, ptr %5, align 8, !tbaa !33
  store i64 %2, ptr %6, align 8, !tbaa !34
  %7 = load ptr, ptr %4, align 8, !tbaa !33
  %8 = load ptr, ptr %5, align 8, !tbaa !33
  %9 = load i64, ptr %6, align 8, !tbaa !34
  %10 = call noundef i64 @_ZN11duckdb_zstd28ZSTD_getFrameHeader_advancedEPNS_16ZSTD_frameHeaderEPKvmNS_13ZSTD_format_eE(ptr noundef %7, ptr noundef %8, i64 noundef %9, i32 noundef 0)
  ret i64 %10
}

; Function Attrs: mustprogress uwtable
define noundef i64 @_ZN11duckdb_zstd34ZSTD_estimateDStreamSize_fromFrameEPKvm(ptr noundef %0, i64 noundef %1) #0 {
  %3 = alloca i64, align 8
  %4 = alloca ptr, align 8
  %5 = alloca i64, align 8
  %6 = alloca i32, align 4
  %7 = alloca %"struct.duckdb_zstd::ZSTD_frameHeader", align 8
  %8 = alloca i64, align 8
  %9 = alloca i32, align 4
  store ptr %0, ptr %4, align 8, !tbaa !33
  store i64 %1, ptr %5, align 8, !tbaa !34
  call void @llvm.lifetime.start.p0(i64 4, ptr %6) #12
  store i32 -2147483648, ptr %6, align 4, !tbaa !54
  call void @llvm.lifetime.start.p0(i64 48, ptr %7) #12
  call void @llvm.lifetime.start.p0(i64 8, ptr %8) #12
  %10 = load ptr, ptr %4, align 8, !tbaa !33
  %11 = load i64, ptr %5, align 8, !tbaa !34
  %12 = call noundef i64 @_ZN11duckdb_zstd19ZSTD_getFrameHeaderEPNS_16ZSTD_frameHeaderEPKvm(ptr noundef %7, ptr noundef %10, i64 noundef %11)
  store i64 %12, ptr %8, align 8, !tbaa !34
  %13 = load i64, ptr %8, align 8, !tbaa !34
  %14 = call noundef i32 @_ZN11duckdb_zstdL11ERR_isErrorEm(i64 noundef %13)
  %15 = icmp ne i32 %14, 0
  br i1 %15, label %16, label %18

16:                                               ; preds = %2
  %17 = load i64, ptr %8, align 8, !tbaa !34
  store i64 %17, ptr %3, align 8
  store i32 1, ptr %9, align 4
  br label %61

18:                                               ; preds = %2
  br label %19

19:                                               ; preds = %18
  %20 = load i64, ptr %8, align 8, !tbaa !34
  %21 = icmp ugt i64 %20, 0
  br i1 %21, label %22, label %35

22:                                               ; preds = %19
  br label %23

23:                                               ; preds = %22
  br label %24

24:                                               ; preds = %23
  br label %25

25:                                               ; preds = %24
  br label %26

26:                                               ; preds = %25
  br label %27

27:                                               ; preds = %26
  br label %28

28:                                               ; preds = %27
  br label %29

29:                                               ; preds = %28
  br label %30

30:                                               ; preds = %29
  br label %31

31:                                               ; preds = %30
  br label %32

32:                                               ; preds = %31
  br label %33

33:                                               ; preds = %32
  br label %34

34:                                               ; preds = %33
  store i64 -72, ptr %3, align 8
  store i32 1, ptr %9, align 4
  br label %61

35:                                               ; preds = %19
  br label %36

36:                                               ; preds = %35
  br label %37

37:                                               ; preds = %36
  br label %38

38:                                               ; preds = %37
  %39 = getelementptr inbounds nuw %"struct.duckdb_zstd::ZSTD_frameHeader", ptr %7, i32 0, i32 1
  %40 = load i64, ptr %39, align 8, !tbaa !61
  %41 = icmp ugt i64 %40, 2147483648
  br i1 %41, label %42, label %55

42:                                               ; preds = %38
  br label %43

43:                                               ; preds = %42
  br label %44

44:                                               ; preds = %43
  br label %45

45:                                               ; preds = %44
  br label %46

46:                                               ; preds = %45
  br label %47

47:                                               ; preds = %46
  br label %48

48:                                               ; preds = %47
  br label %49

49:                                               ; preds = %48
  br label %50

50:                                               ; preds = %49
  br label %51

51:                                               ; preds = %50
  br label %52

52:                                               ; preds = %51
  br label %53

53:                                               ; preds = %52
  br label %54

54:                                               ; preds = %53
  store i64 -16, ptr %3, align 8
  store i32 1, ptr %9, align 4
  br label %61

55:                                               ; preds = %38
  br label %56

56:                                               ; preds = %55
  br label %57

57:                                               ; preds = %56
  %58 = getelementptr inbounds nuw %"struct.duckdb_zstd::ZSTD_frameHeader", ptr %7, i32 0, i32 1
  %59 = load i64, ptr %58, align 8, !tbaa !61
  %60 = call noundef i64 @_ZN11duckdb_zstd24ZSTD_estimateDStreamSizeEm(i64 noundef %59)
  store i64 %60, ptr %3, align 8
  store i32 1, ptr %9, align 4
  br label %61

61:                                               ; preds = %57, %54, %34, %16
  call void @llvm.lifetime.end.p0(i64 8, ptr %8) #12
  call void @llvm.lifetime.end.p0(i64 48, ptr %7) #12
  call void @llvm.lifetime.end.p0(i64 4, ptr %6) #12
  %62 = load i64, ptr %3, align 8
  ret i64 %62
}